; Function Attrs: mustprogress uwtable
define dso_local noundef zeroext i1 @_ZN7FactMgr22update_fact_for_assignEPK15StatementAssignRSt6vectorIPK4FactSaIS6_EE(ptr noundef readonly captures(none) %0, ptr noundef nonnull align 8 dereferenceable(24) %1) local_unnamed_addr #4 align 2 {
  %3 = getelementptr inbounds nuw i8, ptr %0, i64 40
  %4 = load ptr, ptr %3, align 8, !tbaa !174
  %5 = getelementptr inbounds nuw i8, ptr %0, i64 56
  %6 = load ptr, ptr %5, align 8, !tbaa !179
  %7 = tail call noundef zeroext i1 @_ZN7FactMgr22update_fact_for_assignEPK3LhsPK10ExpressionRSt6vectorIPK4FactSaIS9_EE(ptr noundef %4, ptr noundef %6, ptr noundef nonnull align 8 dereferenceable(24) %1)
  br i1 %7, label %8, label %12

8:                                                ; preds = %2
  %9 = getelementptr inbounds nuw i8, ptr %0, i64 16
  %10 = load ptr, ptr %9, align 8, !tbaa !141
  %11 = getelementptr inbounds nuw i8, ptr %10, i64 264
  store i8 1, ptr %11, align 8, !tbaa !180
  br label %12

12:                                               ; preds = %2, %8
  ret i1 %7
}